target datalayout = "e-m:e-p270:32:32-p271:32:32-p272:64:64-i64:64-i128:128-f80:128-n8:16:32:64-S128"
target triple = "x86_64-pc-linux-gnu"

@H5_libinit_g = external global i8, align 1
@H5_libterm_g = external global i8, align 1
@.str = private unnamed_addr constant [102 x i8] c"generated/home/dtcxzyw/WorkSpace/Projects/compilers/llvm-opt-benchmark/bench/hdf5/hdf5/src/H5Tarray.c\00", align 1
@__func__.H5Tarray_create2 = private unnamed_addr constant [17 x i8] c"H5Tarray_create2\00", align 1
@H5E_FUNC_g = external global i64, align 8
@H5E_CANTINIT_g = external global i64, align 8
@.str.1 = private unnamed_addr constant [30 x i8] c"library initialization failed\00", align 1
@H5E_CANTSET_g = external global i64, align 8
@.str.2 = private unnamed_addr constant [22 x i8] c"can't set API context\00", align 1
@H5E_ARGS_g = external global i64, align 8
@H5E_BADVALUE_g = external global i64, align 8
@.str.3 = private unnamed_addr constant [23 x i8] c"invalid dimensionality\00", align 1
@.str.4 = private unnamed_addr constant [24 x i8] c"no dimensions specified\00", align 1
@.str.5 = private unnamed_addr constant [31 x i8] c"zero-sized dimension specified\00", align 1
@H5E_BADTYPE_g = external global i64, align 8
@.str.6 = private unnamed_addr constant [27 x i8] c"not an valid base datatype\00", align 1
@H5E_DATATYPE_g = external global i64, align 8
@H5E_CANTREGISTER_g = external global i64, align 8
@.str.7 = private unnamed_addr constant [26 x i8] c"unable to create datatype\00", align 1
@.str.8 = private unnamed_addr constant [28 x i8] c"unable to register datatype\00", align 1
@H5E_CANTRELEASE_g = external global i64, align 8
@.str.9 = private unnamed_addr constant [23 x i8] c"can't release datatype\00", align 1

; Function Attrs: nounwind uwtable
define i64 @H5Tarray_create2(i64 noundef %0, i32 noundef %1, ptr noundef %2) #0 {
  %4 = alloca i64, align 8
  %5 = alloca i32, align 4
  %6 = alloca ptr, align 8
  %7 = alloca ptr, align 8
  %8 = alloca ptr, align 8
  %9 = alloca i32, align 4
  %10 = alloca i64, align 8
  %11 = alloca i8, align 1
  %12 = alloca i8, align 1
  store i64 %0, ptr %4, align 8
  store i32 %1, ptr %5, align 4
  store ptr %2, ptr %6, align 8
  store ptr null, ptr %8, align 8
  store i8 0, ptr %11, align 1
  store i8 0, ptr %12, align 1
  %13 = load i8, ptr @H5_libinit_g, align 1
  %14 = trunc i8 %13 to i1
  br i1 %14, label %19, label %15

15:                                               ; preds = %3
  %16 = load i8, ptr @H5_libterm_g, align 1
  %17 = trunc i8 %16 to i1
  %18 = xor i1 %17, true
  br label %19

19:                                               ; preds = %15, %3
  %20 = phi i1 [ false, %3 ], [ %18, %15 ]
  %21 = xor i1 %20, true
  %22 = xor i1 %21, true
  %23 = zext i1 %22 to i32
  %24 = sext i32 %23 to i64
  %25 = icmp ne i64 %24, 0
  br i1 %25, label %26, label %50

26:                                               ; preds = %19
  %27 = call i32 @H5_init_library()
  %28 = icmp slt i32 %27, 0
  %29 = xor i1 %28, true
  %30 = xor i1 %29, true
  %31 = zext i1 %30 to i32
  %32 = sext i32 %31 to i64
  %33 = icmp ne i64 %32, 0
  br i1 %33, label %34, label %49

34:                                               ; preds = %26
  br label %35

35:                                               ; preds = %34
  br label %36

36:                                               ; preds = %35
  br label %37

37:                                               ; preds = %36
  %38 = load i64, ptr @H5E_FUNC_g, align 8
  %39 = load i64, ptr @H5E_CANTINIT_g, align 8
  %40 = call i32 (ptr, ptr, i32, i64, i64, ptr, ...) @H5E_printf_stack(ptr noundef @.str, ptr noundef @__func__.H5Tarray_create2, i32 noundef 88, i64 noundef %38, i64 noundef %39, ptr noundef @.str.1)
  br label %41

41:                                               ; preds = %37
  store i8 1, ptr %12, align 1
  %42 = load i8, ptr %12, align 1
  %43 = trunc i8 %42 to i1
  %44 = zext i1 %43 to i8
  store i8 %44, ptr %12, align 1
  br label %45

45:                                               ; preds = %41
  br label %46

46:                                               ; preds = %45
  store i64 -1, ptr %10, align 8
  br label %205

47:                                               ; No predecessors!
  br label %48

48:                                               ; preds = %47
  br label %49

49:                                               ; preds = %48, %26
  br label %50

50:                                               ; preds = %49, %19
  %51 = call i32 @H5CX_push()
  %52 = icmp slt i32 %51, 0
  %53 = xor i1 %52, true
  %54 = xor i1 %53, true
  %55 = zext i1 %54 to i32
  %56 = sext i32 %55 to i64
  %57 = icmp ne i64 %56, 0
  br i1 %57, label %58, label %73

58:                                               ; preds = %50
  br label %59

59:                                               ; preds = %58
  br label %60

60:                                               ; preds = %59
  br label %61

61:                                               ; preds = %60
  %62 = load i64, ptr @H5E_FUNC_g, align 8
  %63 = load i64, ptr @H5E_CANTSET_g, align 8
  %64 = call i32 (ptr, ptr, i32, i64, i64, ptr, ...) @H5E_printf_stack(ptr noundef @.str, ptr noundef @__func__.H5Tarray_create2, i32 noundef 88, i64 noundef %62, i64 noundef %63, ptr noundef @.str.2)
  br label %65

65:                                               ; preds = %61
  store i8 1, ptr %12, align 1
  %66 = load i8, ptr %12, align 1
  %67 = trunc i8 %66 to i1
  %68 = zext i1 %67 to i8
  store i8 %68, ptr %12, align 1
  br label %69

69:                                               ; preds = %65
  br label %70

70:                                               ; preds = %69
  store i64 -1, ptr %10, align 8
  br label %205

71:                                               ; No predecessors!
  br label %72

72:                                               ; preds = %71
  br label %74

73:                                               ; preds = %50
  store i8 1, ptr %11, align 1
  br label %74

74:                                               ; preds = %73, %72
  %75 = call i32 @H5E_clear_stack()
  %76 = load i32, ptr %5, align 4
  %77 = icmp ult i32 %76, 1
  br i1 %77, label %81, label %78

78:                                               ; preds = %74
  %79 = load i32, ptr %5, align 4
  %80 = icmp ugt i32 %79, 32
  br i1 %80, label %81, label %96

81:                                               ; preds = %78, %74
  br label %82

82:                                               ; preds = %81
  br label %83

83:                                               ; preds = %82
  br label %84

84:                                               ; preds = %83
  %85 = load i64, ptr @H5E_ARGS_g, align 8
  %86 = load i64, ptr @H5E_BADVALUE_g, align 8
  %87 = call i32 (ptr, ptr, i32, i64, i64, ptr, ...) @H5E_printf_stack(ptr noundef @.str, ptr noundef @__func__.H5Tarray_create2, i32 noundef 92, i64 noundef %85, i64 noundef %86, ptr noundef @.str.3)
  br label %88

88:                                               ; preds = %84
  store i8 1, ptr %12, align 1
  %89 = load i8, ptr %12, align 1
  %90 = trunc i8 %89 to i1
  %91 = zext i1 %90 to i8
  store i8 %91, ptr %12, align 1
  br label %92

92:                                               ; preds = %88
  br label %93

93:                                               ; preds = %92
  store i64 -1, ptr %10, align 8
  br label %205

94:                                               ; No predecessors!
  br label %95

95:                                               ; preds = %94
  br label %96

96:                                               ; preds = %95, %78
  %97 = load ptr, ptr %6, align 8
  %98 = icmp ne ptr %97, null
  br i1 %98, label %114, label %99

99:                                               ; preds = %96
  br label %100

100:                                              ; preds = %99
  br label %101

101:                                              ; preds = %100
  br label %102

102:                                              ; preds = %101
  %103 = load i64, ptr @H5E_ARGS_g, align 8
  %104 = load i64, ptr @H5E_BADVALUE_g, align 8
  %105 = call i32 (ptr, ptr, i32, i64, i64, ptr, ...) @H5E_printf_stack(ptr noundef @.str, ptr noundef @__func__.H5Tarray_create2, i32 noundef 94, i64 noundef %103, i64 noundef %104, ptr noundef @.str.4)
  br label %106

106:                                              ; preds = %102
  store i8 1, ptr %12, align 1
  %107 = load i8, ptr %12, align 1
  %108 = trunc i8 %107 to i1
  %109 = zext i1 %108 to i8
  store i8 %109, ptr %12, align 1
  br label %110

110:                                              ; preds = %106
  br label %111

111:                                              ; preds = %110
  store i64 -1, ptr %10, align 8
  br label %205

112:                                              ; No predecessors!
  br label %113

113:                                              ; preds = %112
  br label %114

114:                                              ; preds = %113, %96
  store i32 0, ptr %9, align 4
  br label %115

115:                                              ; preds = %142, %114
  %116 = load i32, ptr %9, align 4
  %117 = load i32, ptr %5, align 4
  %118 = icmp ult i32 %116, %117
  br i1 %118, label %119, label %145

119:                                              ; preds = %115
  %120 = load ptr, ptr %6, align 8
  %121 = load i32, ptr %9, align 4
  %122 = zext i32 %121 to i64
  %123 = getelementptr inbounds i64, ptr %120, i64 %122
  %124 = load i64, ptr %123, align 8
  %125 = icmp ugt i64 %124, 0
  br i1 %125, label %141, label %126

126:                                              ; preds = %119
  br label %127

127:                                              ; preds = %126
  br label %128

128:                                              ; preds = %127
  br label %129

129:                                              ; preds = %128
  %130 = load i64, ptr @H5E_ARGS_g, align 8
  %131 = load i64, ptr @H5E_BADVALUE_g, align 8
  %132 = call i32 (ptr, ptr, i32, i64, i64, ptr, ...) @H5E_printf_stack(ptr noundef @.str, ptr noundef @__func__.H5Tarray_create2, i32 noundef 97, i64 noundef %130, i64 noundef %131, ptr noundef @.str.5)
  br label %133

133:                                              ; preds = %129
  store i8 1, ptr %12, align 1
  %134 = load i8, ptr %12, align 1
  %135 = trunc i8 %134 to i1
  %136 = zext i1 %135 to i8
  store i8 %136, ptr %12, align 1
  br label %137

137:                                              ; preds = %133
  br label %138

138:                                              ; preds = %137
  store i64 -1, ptr %10, align 8
  br label %205

139:                                              ; No predecessors!
  br label %140

140:                                              ; preds = %139
  br label %141

141:                                              ; preds = %140, %119
  br label %142

142:                                              ; preds = %141
  %143 = load i32, ptr %9, align 4
  %144 = add i32 %143, 1
  store i32 %144, ptr %9, align 4
  br label %115

145:                                              ; preds = %115
  %146 = load i64, ptr %4, align 8
  %147 = call ptr @H5I_object_verify(i64 noundef %146, i32 noundef 3)
  store ptr %147, ptr %7, align 8
  %148 = icmp eq ptr null, %147
  br i1 %148, label %149, label %164

149:                                              ; preds = %145
  br label %150

150:                                              ; preds = %149
  br label %151

151:                                              ; preds = %150
  br label %152

152:                                              ; preds = %151
  %153 = load i64, ptr @H5E_ARGS_g, align 8
  %154 = load i64, ptr @H5E_BADTYPE_g, align 8
  %155 = call i32 (ptr, ptr, i32, i64, i64, ptr, ...) @H5E_printf_stack(ptr noundef @.str, ptr noundef @__func__.H5Tarray_create2, i32 noundef 99, i64 noundef %153, i64 noundef %154, ptr noundef @.str.6)
  br label %156

156:                                              ; preds = %152
  store i8 1, ptr %12, align 1
  %157 = load i8, ptr %12, align 1
  %158 = trunc i8 %157 to i1
  %159 = zext i1 %158 to i8
  store i8 %159, ptr %12, align 1
  br label %160

160:                                              ; preds = %156
  br label %161

161:                                              ; preds = %160
  store i64 -1, ptr %10, align 8
  br label %205

162:                                              ; No predecessors!
  br label %163

163:                                              ; preds = %162
  br label %164

164:                                              ; preds = %163, %145
  %165 = load ptr, ptr %7, align 8
  %166 = load i32, ptr %5, align 4
  %167 = load ptr, ptr %6, align 8
  %168 = call ptr @H5T__array_create(ptr noundef %165, i32 noundef %166, ptr noundef %167)
  store ptr %168, ptr %8, align 8
  %169 = icmp eq ptr null, %168
  br i1 %169, label %170, label %185

170:                                              ; preds = %164
  br label %171

171:                                              ; preds = %170
  br label %172

172:                                              ; preds = %171
  br label %173

173:                                              ; preds = %172
  %174 = load i64, ptr @H5E_DATATYPE_g, align 8
  %175 = load i64, ptr @H5E_CANTREGISTER_g, align 8
  %176 = call i32 (ptr, ptr, i32, i64, i64, ptr, ...) @H5E_printf_stack(ptr noundef @.str, ptr noundef @__func__.H5Tarray_create2, i32 noundef 103, i64 noundef %174, i64 noundef %175, ptr noundef @.str.7)
  br label %177

177:                                              ; preds = %173
  store i8 1, ptr %12, align 1
  %178 = load i8, ptr %12, align 1
  %179 = trunc i8 %178 to i1
  %180 = zext i1 %179 to i8
  store i8 %180, ptr %12, align 1
  br label %181

181:                                              ; preds = %177
  br label %182

182:                                              ; preds = %181
  store i64 -1, ptr %10, align 8
  br label %205

183:                                              ; No predecessors!
  br label %184

184:                                              ; preds = %183
  br label %185

185:                                              ; preds = %184, %164
  %186 = load ptr, ptr %8, align 8
  %187 = call i64 @H5I_register(i32 noundef 3, ptr noundef %186, i1 noundef zeroext true)
  store i64 %187, ptr %10, align 8
  %188 = icmp slt i64 %187, 0
  br i1 %188, label %189, label %204

189:                                              ; preds = %185
  br label %190

190:                                              ; preds = %189
  br label %191

191:                                              ; preds = %190
  br label %192

192:                                              ; preds = %191
  %193 = load i64, ptr @H5E_DATATYPE_g, align 8
  %194 = load i64, ptr @H5E_CANTREGISTER_g, align 8
  %195 = call i32 (ptr, ptr, i32, i64, i64, ptr, ...) @H5E_printf_stack(ptr noundef @.str, ptr noundef @__func__.H5Tarray_create2, i32 noundef 107, i64 noundef %193, i64 noundef %194, ptr noundef @.str.8)
  br label %196

196:                                              ; preds = %192
  store i8 1, ptr %12, align 1
  %197 = load i8, ptr %12, align 1
  %198 = trunc i8 %197 to i1
  %199 = zext i1 %198 to i8
  store i8 %199, ptr %12, align 1
  br label %200

200:                                              ; preds = %196
  br label %201

201:                                              ; preds = %200
  store i64 -1, ptr %10, align 8
  br label %205

202:                                              ; No predecessors!
  br label %203

203:                                              ; preds = %202
  br label %204

204:                                              ; preds = %203, %185
  br label %205

205:                                              ; preds = %204, %201, %182, %161, %138, %111, %93, %70, %46
  %206 = load i64, ptr %10, align 8
  %207 = icmp slt i64 %206, 0
  br i1 %207, label %208, label %229

208:                                              ; preds = %205
  %209 = load ptr, ptr %8, align 8
  %210 = icmp ne ptr %209, null
  br i1 %210, label %211, label %228

211:                                              ; preds = %208
  %212 = load ptr, ptr %8, align 8
  %213 = call i32 @H5T_close_real(ptr noundef %212)
  %214 = icmp slt i32 %213, 0
  br i1 %214, label %215, label %228

215:                                              ; preds = %211
  br label %216

216:                                              ; preds = %215
  br label %217

217:                                              ; preds = %216
  br label %218

218:                                              ; preds = %217
  %219 = load i64, ptr @H5E_DATATYPE_g, align 8
  %220 = load i64, ptr @H5E_CANTRELEASE_g, align 8
  %221 = call i32 (ptr, ptr, i32, i64, i64, ptr, ...) @H5E_printf_stack(ptr noundef @.str, ptr noundef @__func__.H5Tarray_create2, i32 noundef 112, i64 noundef %219, i64 noundef %220, ptr noundef @.str.9)
  br label %222

222:                                              ; preds = %218
  store i8 1, ptr %12, align 1
  %223 = load i8, ptr %12, align 1
  %224 = trunc i8 %223 to i1
  %225 = zext i1 %224 to i8
  store i8 %225, ptr %12, align 1
  br label %226

226:                                              ; preds = %222
  store i64 -1, ptr %10, align 8
  br label %227

227:                                              ; preds = %226
  br label %228

228:                                              ; preds = %227, %211, %208
  br label %229

229:                                              ; preds = %228, %205
  %230 = load i8, ptr %11, align 1
  %231 = trunc i8 %230 to i1
  %232 = xor i1 %231, true
  %233 = xor i1 %232, true
  %234 = zext i1 %233 to i32
  %235 = sext i32 %234 to i64
  %236 = icmp ne i64 %235, 0
  br i1 %236, label %237, label %239

237:                                              ; preds = %229
  %238 = call i32 @H5CX_pop(i1 noundef zeroext true)
  store i8 0, ptr %11, align 1
  br label %239

239:                                              ; preds = %237, %229
  %240 = load i8, ptr %12, align 1
  %241 = trunc i8 %240 to i1
  %242 = xor i1 %241, true
  %243 = xor i1 %242, true
  %244 = zext i1 %243 to i32
  %245 = sext i32 %244 to i64
  %246 = icmp ne i64 %245, 0
  br i1 %246, label %247, label %249

247:                                              ; preds = %239
  %248 = call i32 @H5E_dump_api_stack()
  br label %249

249:                                              ; preds = %247, %239
  %250 = load i64, ptr %10, align 8
  ret i64 %250
}