; Function Attrs: nounwind uwtable
define range(i64 -1, -9223372036854775808) i64 @H5Tarray_create2(i64 noundef %0, i32 noundef %1, ptr noundef readonly %2) local_unnamed_addr #0 {
  %4 = load i8, ptr @H5_libinit_g, align 1
  %5 = trunc i8 %4 to i1
  %6 = load i8, ptr @H5_libterm_g, align 1
  %7 = trunc i8 %6 to i1
  %8 = select i1 %5, i1 true, i1 %7
  br i1 %8, label %16, label %9

9:                                                ; preds = %3
  %10 = tail call i32 @H5_init_library() #5
  %11 = icmp slt i32 %10, 0
  br i1 %11, label %12, label %16

12:                                               ; preds = %9
  %13 = load i64, ptr @H5E_FUNC_g, align 8
  %14 = load i64, ptr @H5E_CANTINIT_g, align 8
  %15 = tail call i32 (ptr, ptr, i32, i64, i64, ptr, ...) @H5E_printf_stack(ptr noundef nonnull @.str, ptr noundef nonnull @__func__.H5Tarray_create2, i32 noundef 88, i64 noundef %13, i64 noundef %14, ptr noundef nonnull @.str.1) #5
  br label %.thread63

16:                                               ; preds = %9, %3
  %17 = tail call i32 @H5CX_push() #5
  %18 = icmp slt i32 %17, 0
  br i1 %18, label %19, label %23

19:                                               ; preds = %16
  %20 = load i64, ptr @H5E_FUNC_g, align 8
  %21 = load i64, ptr @H5E_CANTSET_g, align 8
  %22 = tail call i32 (ptr, ptr, i32, i64, i64, ptr, ...) @H5E_printf_stack(ptr noundef nonnull @.str, ptr noundef nonnull @__func__.H5Tarray_create2, i32 noundef 88, i64 noundef %20, i64 noundef %21, ptr noundef nonnull @.str.2) #5
  br label %.thread63

23:                                               ; preds = %16
  %24 = tail call i32 @H5E_clear_stack() #5
  %25 = add i32 %1, -33
  %or.cond = icmp ult i32 %25, -32
  br i1 %or.cond, label %26, label %30

26:                                               ; preds = %23
  %27 = load i64, ptr @H5E_ARGS_g, align 8
  %28 = load i64, ptr @H5E_BADVALUE_g, align 8
  %29 = tail call i32 (ptr, ptr, i32, i64, i64, ptr, ...) @H5E_printf_stack(ptr noundef nonnull @.str, ptr noundef nonnull @__func__.H5Tarray_create2, i32 noundef 92, i64 noundef %27, i64 noundef %28, ptr noundef nonnull @.str.3) #5
  br label %.thread72

30:                                               ; preds = %23
  %.not = icmp eq ptr %2, null
  br i1 %.not, label %31, label %.lr.ph.preheader

.lr.ph.preheader:                                 ; preds = %30
  %wide.trip.count = zext nneg i32 %1 to i64
  br label %.lr.ph

31:                                               ; preds = %30
  %32 = load i64, ptr @H5E_ARGS_g, align 8
  %33 = load i64, ptr @H5E_BADVALUE_g, align 8
  %34 = tail call i32 (ptr, ptr, i32, i64, i64, ptr, ...) @H5E_printf_stack(ptr noundef nonnull @.str, ptr noundef nonnull @__func__.H5Tarray_create2, i32 noundef 94, i64 noundef %32, i64 noundef %33, ptr noundef nonnull @.str.4) #5
  br label %.thread72

35:                                               ; preds = %.lr.ph
  %indvars.iv.next = add nuw nsw i64 %indvars.iv, 1
  %exitcond.not = icmp eq i64 %indvars.iv.next, %wide.trip.count
  br i1 %exitcond.not, label %._crit_edge, label %.lr.ph

.lr.ph:                                           ; preds = %.lr.ph.preheader, %35
  %indvars.iv = phi i64 [ 0, %.lr.ph.preheader ], [ %indvars.iv.next, %35 ]
  %36 = getelementptr inbounds i64, ptr %2, i64 %indvars.iv
  %37 = load i64, ptr %36, align 8
  %.not41 = icmp eq i64 %37, 0
  br i1 %.not41, label %38, label %35

38:                                               ; preds = %.lr.ph
  %39 = load i64, ptr @H5E_ARGS_g, align 8
  %40 = load i64, ptr @H5E_BADVALUE_g, align 8
  %41 = tail call i32 (ptr, ptr, i32, i64, i64, ptr, ...) @H5E_printf_stack(ptr noundef nonnull @.str, ptr noundef nonnull @__func__.H5Tarray_create2, i32 noundef 97, i64 noundef %39, i64 noundef %40, ptr noundef nonnull @.str.5) #5
  br label %.thread72

._crit_edge:                                      ; preds = %35
  %42 = tail call ptr @H5I_object_verify(i64 noundef %0, i32 noundef 3) #5
  %43 = icmp eq ptr %42, null
  br i1 %43, label %44, label %48

44:                                               ; preds = %._crit_edge
  %45 = load i64, ptr @H5E_ARGS_g, align 8
  %46 = load i64, ptr @H5E_BADTYPE_g, align 8
  %47 = tail call i32 (ptr, ptr, i32, i64, i64, ptr, ...) @H5E_printf_stack(ptr noundef nonnull @.str, ptr noundef nonnull @__func__.H5Tarray_create2, i32 noundef 99, i64 noundef %45, i64 noundef %46, ptr noundef nonnull @.str.6) #5
  br label %.thread72

48:                                               ; preds = %._crit_edge
  %49 = tail call ptr @H5T__array_create(ptr noundef nonnull %42, i32 noundef %1, ptr noundef nonnull %2)
  %50 = icmp eq ptr %49, null
  br i1 %50, label %51, label %55

51:                                               ; preds = %48
  %52 = load i64, ptr @H5E_DATATYPE_g, align 8
  %53 = load i64, ptr @H5E_CANTREGISTER_g, align 8
  %54 = tail call i32 (ptr, ptr, i32, i64, i64, ptr, ...) @H5E_printf_stack(ptr noundef nonnull @.str, ptr noundef nonnull @__func__.H5Tarray_create2, i32 noundef 103, i64 noundef %52, i64 noundef %53, ptr noundef nonnull @.str.7) #5
  br label %.thread72

55:                                               ; preds = %48
  %56 = tail call i64 @H5I_register(i32 noundef 3, ptr noundef nonnull %49, i1 noundef zeroext true) #5
  %57 = icmp slt i64 %56, 0
  br i1 %57, label %58, label %70

58:                                               ; preds = %55
  %59 = load i64, ptr @H5E_DATATYPE_g, align 8
  %60 = load i64, ptr @H5E_CANTREGISTER_g, align 8
  %61 = tail call i32 (ptr, ptr, i32, i64, i64, ptr, ...) @H5E_printf_stack(ptr noundef nonnull @.str, ptr noundef nonnull @__func__.H5Tarray_create2, i32 noundef 107, i64 noundef %59, i64 noundef %60, ptr noundef nonnull @.str.8) #5
  %62 = tail call i32 @H5T_close_real(ptr noundef nonnull %49) #5
  %63 = icmp slt i32 %62, 0
  br i1 %63, label %64, label %.thread68

64:                                               ; preds = %58
  %65 = load i64, ptr @H5E_DATATYPE_g, align 8
  %66 = load i64, ptr @H5E_CANTRELEASE_g, align 8
  %67 = tail call i32 (ptr, ptr, i32, i64, i64, ptr, ...) @H5E_printf_stack(ptr noundef nonnull @.str, ptr noundef nonnull @__func__.H5Tarray_create2, i32 noundef 112, i64 noundef %65, i64 noundef %66, ptr noundef nonnull @.str.9) #5
  br label %.thread68

.thread68:                                        ; preds = %58, %64
  %68 = tail call i32 @H5CX_pop(i1 noundef zeroext true) #5
  br label %.thread63

.thread72:                                        ; preds = %26, %38, %44, %51, %31
  %69 = tail call i32 @H5CX_pop(i1 noundef zeroext true) #5
  br label %.thread63

70:                                               ; preds = %55
  %71 = tail call i32 @H5CX_pop(i1 noundef zeroext true) #5
  br label %73

.thread63:                                        ; preds = %12, %19, %.thread72, %.thread68
  %72 = tail call i32 @H5E_dump_api_stack() #5
  br label %73

73:                                               ; preds = %70, %.thread63
  %.1325366 = phi i64 [ -1, %.thread63 ], [ %56, %70 ]
  ret i64 %.1325366
}